
Atomizer.elf:     file format elf32-avr

Sections:
Idx Name          Size      VMA       LMA       File off  Algn
  0 .text         000007e2  00000000  00000000  00000074  2**1
                  CONTENTS, ALLOC, LOAD, READONLY, CODE
  1 .data         00000000  00800060  00800060  00000856  2**0
                  CONTENTS, ALLOC, LOAD, DATA
  2 .bss          0000000f  00800060  00800060  00000856  2**0
                  ALLOC
  3 .comment      00000030  00000000  00000000  00000856  2**0
                  CONTENTS, READONLY
  4 .note.gnu.avr.deviceinfo 0000003c  00000000  00000000  00000888  2**2
                  CONTENTS, READONLY
  5 .debug_aranges 00000060  00000000  00000000  000008c4  2**0
                  CONTENTS, READONLY, DEBUGGING
  6 .debug_info   000007b2  00000000  00000000  00000924  2**0
                  CONTENTS, READONLY, DEBUGGING
  7 .debug_abbrev 000005b9  00000000  00000000  000010d6  2**0
                  CONTENTS, READONLY, DEBUGGING
  8 .debug_line   000004e5  00000000  00000000  0000168f  2**0
                  CONTENTS, READONLY, DEBUGGING
  9 .debug_frame  000001b0  00000000  00000000  00001b74  2**2
                  CONTENTS, READONLY, DEBUGGING
 10 .debug_str    00000442  00000000  00000000  00001d24  2**0
                  CONTENTS, READONLY, DEBUGGING
 11 .debug_loc    00000392  00000000  00000000  00002166  2**0
                  CONTENTS, READONLY, DEBUGGING
 12 .debug_ranges 00000050  00000000  00000000  000024f8  2**0
                  CONTENTS, READONLY, DEBUGGING

Disassembly of section .text:

00000000 <__vectors>:
   0:	0e c0       	rjmp	.+28     	; 0x1e <__ctors_end>
   2:	1d c0       	rjmp	.+58     	; 0x3e <__bad_interrupt>
   4:	9d c1       	rjmp	.+826    	; 0x340 <__vector_2>
   6:	9f c0       	rjmp	.+318    	; 0x146 <__vector_3>
   8:	1a c0       	rjmp	.+52     	; 0x3e <__bad_interrupt>
   a:	19 c0       	rjmp	.+50     	; 0x3e <__bad_interrupt>
   c:	18 c0       	rjmp	.+48     	; 0x3e <__bad_interrupt>
   e:	17 c0       	rjmp	.+46     	; 0x3e <__bad_interrupt>
  10:	fa c1       	rjmp	.+1012   	; 0x406 <__vector_8>
  12:	15 c0       	rjmp	.+42     	; 0x3e <__bad_interrupt>
  14:	23 c1       	rjmp	.+582    	; 0x25c <__vector_10>
  16:	13 c0       	rjmp	.+38     	; 0x3e <__bad_interrupt>
  18:	79 c1       	rjmp	.+754    	; 0x30c <__vector_12>
  1a:	11 c0       	rjmp	.+34     	; 0x3e <__bad_interrupt>
  1c:	10 c0       	rjmp	.+32     	; 0x3e <__bad_interrupt>

0000001e <__ctors_end>:
  1e:	11 24       	eor	r1, r1
  20:	1f be       	out	0x3f, r1	; 63
  22:	cf e5       	ldi	r28, 0x5F	; 95
  24:	d2 e0       	ldi	r29, 0x02	; 2
  26:	de bf       	out	0x3e, r29	; 62
  28:	cd bf       	out	0x3d, r28	; 61

0000002a <__do_clear_bss>:
  2a:	20 e0       	ldi	r18, 0x00	; 0
  2c:	a0 e6       	ldi	r26, 0x60	; 96
  2e:	b0 e0       	ldi	r27, 0x00	; 0
  30:	01 c0       	rjmp	.+2      	; 0x34 <.do_clear_bss_start>

00000032 <.do_clear_bss_loop>:
  32:	1d 92       	st	X+, r1

00000034 <.do_clear_bss_start>:
  34:	af 36       	cpi	r26, 0x6F	; 111
  36:	b2 07       	cpc	r27, r18
  38:	e1 f7       	brne	.-8      	; 0x32 <.do_clear_bss_loop>
  3a:	57 d0       	rcall	.+174    	; 0xea <main>
  3c:	d0 c3       	rjmp	.+1952   	; 0x7de <_exit>

0000003e <__bad_interrupt>:
  3e:	e0 cf       	rjmp	.-64     	; 0x0 <__vectors>

00000040 <resetPWM>:
/// FUNCTIONS
/////////////////////////

void resetPWM() {
	
	OCR0A=0x81;		// low duty;	0x42 (66) - 0x81 (129)
  40:	81 e8       	ldi	r24, 0x81	; 129
  42:	89 bd       	out	0x29, r24	; 41
	OCR0B=0x41;		// high duty;	0x01 (1) - 0x41 (65)
  44:	81 e4       	ldi	r24, 0x41	; 65
  46:	88 bd       	out	0x28, r24	; 40
  48:	08 95       	ret

0000004a <setModeIndicator>:
}

void setModeIndicator(CONTROLMODE p_currentMode) 
{
	currentMode = p_currentMode;
  4a:	80 93 60 00 	sts	0x0060, r24	; 0x800060 <_edata>
	switch(p_currentMode)
  4e:	81 30       	cpi	r24, 0x01	; 1
  50:	39 f0       	breq	.+14     	; 0x60 <setModeIndicator+0x16>
  52:	18 f0       	brcs	.+6      	; 0x5a <setModeIndicator+0x10>
  54:	82 30       	cpi	r24, 0x02	; 2
  56:	39 f0       	breq	.+14     	; 0x66 <setModeIndicator+0x1c>
  58:	08 95       	ret
	{
		case NORMAL:
			// Tri-State mode LED pin (LEDS off)
			DDRB &= ~(1<<DDB2);
  5a:	ba 98       	cbi	0x17, 2	; 23
			PORTB &= ~(1<<PB2);
  5c:	c2 98       	cbi	0x18, 2	; 24
			break;
  5e:	08 95       	ret
			
		case SKEW:
			// Logic one to mode LED pin 
			DDRB |= (1<<DDB2);
  60:	ba 9a       	sbi	0x17, 2	; 23
			PORTB |= (1<<PB2);
  62:	c2 9a       	sbi	0x18, 2	; 24
			break;
  64:	08 95       	ret
		
		case SWEEP:
			// Logic zero to mode LED pin 
			DDRB |= (1<<DDB2);
  66:	ba 9a       	sbi	0x17, 2	; 23
			PORTB &= ~(1<<PB2);
  68:	c2 98       	cbi	0x18, 2	; 24
  6a:	08 95       	ret

0000006c <TimerModeEnable>:
	}
}

void TimerModeEnable(CONTROLMODE p_currentMode)
{
	currentMode = p_currentMode;
  6c:	80 93 60 00 	sts	0x0060, r24	; 0x800060 <_edata>
	cli();
  70:	f8 94       	cli
	
	switch(p_currentMode)
  72:	81 30       	cpi	r24, 0x01	; 1
  74:	a1 f0       	breq	.+40     	; 0x9e <TimerModeEnable+0x32>
  76:	18 f0       	brcs	.+6      	; 0x7e <TimerModeEnable+0x12>
  78:	82 30       	cpi	r24, 0x02	; 2
  7a:	31 f1       	breq	.+76     	; 0xc8 <TimerModeEnable+0x5c>
  7c:	34 c0       	rjmp	.+104    	; 0xe6 <TimerModeEnable+0x7a>
	{
		case NORMAL:
			
			// disable Timer0 output to OC0B (PB1)
			TCCR0A = 0;
  7e:	1a bc       	out	0x2a, r1	; 42
			///////////////////////////////////
			//// Timer1 CTC  setup
			///////////////////////////////////

			// Timer/Counter1 is reset to $00 after a compare match with OCR1C register value 
			TCCR1 |= (1<<CTC1);
  80:	80 b7       	in	r24, 0x30	; 48
  82:	80 68       	ori	r24, 0x80	; 128
  84:	80 bf       	out	0x30, r24	; 48
	
			// enable toggle output on OC1A (PB1) output line.
			TCCR1 |= (0<<COM1A1) | (1<<COM1A0);
  86:	80 b7       	in	r24, 0x30	; 48
  88:	80 61       	ori	r24, 0x10	; 16
  8a:	80 bf       	out	0x30, r24	; 48
			
			// Timer/Counter1 Prescale Select PCK/2048
			TCCR1 |= (1<<CS13) | (1<<CS12) | (0<<CS11) | (0<<CS10);
  8c:	80 b7       	in	r24, 0x30	; 48
  8e:	8c 60       	ori	r24, 0x0C	; 12
  90:	80 bf       	out	0x30, r24	; 48
	
			TIMSK |= (1<<OCIE1A);
  92:	89 b7       	in	r24, 0x39	; 57
  94:	80 64       	ori	r24, 0x40	; 64
  96:	89 bf       	out	0x39, r24	; 57
	
			OCR1C =  10;
  98:	8a e0       	ldi	r24, 0x0A	; 10
  9a:	8d bd       	out	0x2d, r24	; 45
	
			break;
  9c:	24 c0       	rjmp	.+72     	; 0xe6 <TimerModeEnable+0x7a>
			
		case SKEW:
			
			// disable Timer1 output to OC1A (PB1)
			TCCR1 = 0;
  9e:	10 be       	out	0x30, r1	; 48
			///////////////////////////////////
			//// Timer0 phase PWM setup
			/////////////////////////////////
			
			//Normal port operation, OC0A disconnected
			TCCR0A |= (0<<COM0A1) | (0<<COM0A0);
  a0:	8a b5       	in	r24, 0x2a	; 42
  a2:	8a bd       	out	0x2a, r24	; 42
			// Enable OC0B (PB1) output. (Clear OC0B on Compare Match, set OC0B at BOTTOM - non-inverting mode)
			TCCR0A |= (1<<COM0B1) | (0<<COM0B0);
  a4:	8a b5       	in	r24, 0x2a	; 42
  a6:	80 62       	ori	r24, 0x20	; 32
  a8:	8a bd       	out	0x2a, r24	; 42
			// Mode 5: phase PWM
			TCCR0A |= (0<<WGM01) | (1<<WGM00);
  aa:	8a b5       	in	r24, 0x2a	; 42
  ac:	81 60       	ori	r24, 0x01	; 1
  ae:	8a bd       	out	0x2a, r24	; 42
			TCCR0B |= (1<<WGM02);
  b0:	83 b7       	in	r24, 0x33	; 51
  b2:	88 60       	ori	r24, 0x08	; 8
  b4:	83 bf       	out	0x33, r24	; 51
			// 1024 Prescaler
			TCCR0B |= (1<<CS02) | (0<<CS01) | (1<<CS00);
  b6:	83 b7       	in	r24, 0x33	; 51
  b8:	85 60       	ori	r24, 0x05	; 5
  ba:	83 bf       	out	0x33, r24	; 51
	
			// Timer/Counter0 Output Compare Match A Interrupt Enable
			TIMSK |= (1<<OCIE0A);
  bc:	89 b7       	in	r24, 0x39	; 57
  be:	80 61       	ori	r24, 0x10	; 16
  c0:	89 bf       	out	0x39, r24	; 57
	
			TCNT0=0x00;
  c2:	12 be       	out	0x32, r1	; 50
			resetPWM();
  c4:	bd df       	rcall	.-134    	; 0x40 <resetPWM>
			
			break;
  c6:	0f c0       	rjmp	.+30     	; 0xe6 <TimerModeEnable+0x7a>
		
		case SWEEP:
		
			// disable Timer0 output to OC0B (PB1)
			TCCR0A = 0;
  c8:	1a bc       	out	0x2a, r1	; 42
			///////////////////////////////////
			//// Timer1 CTC  setup
			///////////////////////////////////

			// Timer/Counter1 is reset to $00 after a compare match with OCR1C register value
			TCCR1 |= (1<<CTC1);
  ca:	80 b7       	in	r24, 0x30	; 48
  cc:	80 68       	ori	r24, 0x80	; 128
  ce:	80 bf       	out	0x30, r24	; 48
			
			// enable toggle output on OC1A (PB1) output line.
			TCCR1 |= (0<<COM1A1) | (1<<COM1A0);
  d0:	80 b7       	in	r24, 0x30	; 48
  d2:	80 61       	ori	r24, 0x10	; 16
  d4:	80 bf       	out	0x30, r24	; 48
			
			// Timer/Counter1 Prescale Select PCK/2048
			//TCCR1 |= (0<<CS13) | (1<<CS12) | (1<<CS11) | (1<<CS10); // /64 
			//TCCR1 |= (1<<CS13) | (0<<CS12) | (0<<CS11) | (0<<CS10); // /128
			TCCR1 |= (1<<CS13) | (0<<CS12) | (0<<CS11) | (1<<CS10); // /256
  d6:	80 b7       	in	r24, 0x30	; 48
  d8:	89 60       	ori	r24, 0x09	; 9
  da:	80 bf       	out	0x30, r24	; 48
			//TCCR1 |= (1<<CS13) | (0<<CS12) | (1<<CS11) | (0<<CS10); // /512
			//TCCR1 |= (1<<CS13) | (0<<CS12) | (1<<CS11) | (1<<CS10); // /1024
			//TCCR1 |= (1<<CS13) | (1<<CS12) | (0<<CS11) | (0<<CS10); // /2048
			
			TIMSK |= (1<<OCIE1A);
  dc:	89 b7       	in	r24, 0x39	; 57
  de:	80 64       	ori	r24, 0x40	; 64
  e0:	89 bf       	out	0x39, r24	; 57
			
			OCR1C =  10;
  e2:	8a e0       	ldi	r24, 0x0A	; 10
  e4:	8d bd       	out	0x2d, r24	; 45
			
			break;
	}
	
	sei();	
  e6:	78 94       	sei
  e8:	08 95       	ret

000000ea <main>:
static __inline__ void clock_prescale_set(clock_div_t) __attribute__((__always_inline__));

void clock_prescale_set(clock_div_t __x)
{
    uint8_t __tmp = _BV(CLKPCE);
    __asm__ __volatile__ (
  ea:	94 e0       	ldi	r25, 0x04	; 4
  ec:	80 e8       	ldi	r24, 0x80	; 128
  ee:	0f b6       	in	r0, 0x3f	; 63
  f0:	f8 94       	cli
  f2:	86 bd       	out	0x26, r24	; 38
  f4:	96 bd       	out	0x26, r25	; 38
  f6:	0f be       	out	0x3f, r0	; 63
	// ** clock_div_16 = 4,
	// clock_div_32 = 5,
	
	clock_prescale_set(4);
	
	cli();
  f8:	f8 94       	cli
	////////////////////////
	
	
	
	// clock signal (output)
	PORTB |= (1<<PB1);
  fa:	c1 9a       	sbi	0x18, 1	; 24
	DDRB |= (1<<DDB1);
  fc:	b9 9a       	sbi	0x17, 1	; 23
	
	// ADC3+4 (input)
	PORTB &= ~(1<<PB3);
  fe:	c3 98       	cbi	0x18, 3	; 24
	DDRB &= ~(1<<DDB3);
 100:	bb 98       	cbi	0x17, 3	; 23
	PORTB &= ~(1<<PB4);
 102:	c4 98       	cbi	0x18, 4	; 24
	DDRB &= ~(1<<DDB4);
 104:	bc 98       	cbi	0x17, 4	; 23
	///////////////////////////////////
	//// PCINT setup
	///////////////////////////////////
	
	// set PB0 to input
	DDRB &= ~(1<<DDB0);
 106:	b8 98       	cbi	0x17, 0	; 23
	// set PB0 pull-up
	PORTB |= 1<<PB0;
 108:	c0 9a       	sbi	0x18, 0	; 24
	
	// enable PC Interrupts
	GIMSK |= (1<<PCIE);
 10a:	8b b7       	in	r24, 0x3b	; 59
 10c:	80 62       	ori	r24, 0x20	; 32
 10e:	8b bf       	out	0x3b, r24	; 59
	// enable PCINT0 interrupt
	PCMSK |= (1<<PCINT0);
 110:	a8 9a       	sbi	0x15, 0	; 21
		
	setModeIndicator(currentMode = NORMAL);
 112:	10 92 60 00 	sts	0x0060, r1	; 0x800060 <_edata>
 116:	80 e0       	ldi	r24, 0x00	; 0
 118:	98 df       	rcall	.-208    	; 0x4a <setModeIndicator>
	TimerModeEnable(NORMAL);
 11a:	80 e0       	ldi	r24, 0x00	; 0
 11c:	a7 df       	rcall	.-178    	; 0x6c <TimerModeEnable>
	//// ADC setup 
	///////////////////////////////////

	
	// VCC used as Voltage Reference, disconnected from PB0 (AREF).
	ADMUX &= ~((1<<REFS0) | (1<<REFS1));
 11e:	87 b1       	in	r24, 0x07	; 7
 120:	8f 73       	andi	r24, 0x3F	; 63
 122:	87 b9       	out	0x07, r24	; 7
	
	// ADC Right Adjust Result
	ADMUX &= ~((1<<ADLAR));
 124:	3d 98       	cbi	0x07, 5	; 7
	// ADC Left Adjust Result
	//ADMUX |= _ADCLA;
	
	// ADC3 selected by default
	ADMUX |= _ADC3EN;
 126:	87 b1       	in	r24, 0x07	; 7
 128:	83 60       	ori	r24, 0x03	; 3
 12a:	87 b9       	out	0x07, r24	; 7
	
	// ADC enable,  Auto Trigger Enable,  Interrupt Enable	
	ADCSRA |= (1<<ADATE) | (1<<ADIE) | (1<<ADEN);
 12c:	86 b1       	in	r24, 0x06	; 6
 12e:	88 6a       	ori	r24, 0xA8	; 168
 130:	86 b9       	out	0x06, r24	; 6
	
	// ADC prescaler /128 - this is fast enough for our purposes, NOTE: /2 prescaler blocks WDT_vect 
	ADCSRA |= (1<<ADPS0) | (1<<ADPS1) | (1<<ADPS2);
 132:	86 b1       	in	r24, 0x06	; 6
 134:	87 60       	ori	r24, 0x07	; 7
 136:	86 b9       	out	0x06, r24	; 6

	// Single Ended conversions, Auto Trigger Source = Free Running mode
	ADCSRB = 0;
 138:	13 b8       	out	0x03, r1	; 3
	
	// ADC Start Conversion
	ADCSRA |= (1<<ADSC);
 13a:	36 9a       	sbi	0x06, 6	; 6
	
	// setup watchdog to interupt every 1sec
	WDTCR |= (1<<WDE) | (1<<WDIE);
 13c:	81 b5       	in	r24, 0x21	; 33
 13e:	88 64       	ori	r24, 0x48	; 72
 140:	81 bd       	out	0x21, r24	; 33
	
	sei();
 142:	78 94       	sei
 144:	ff cf       	rjmp	.-2      	; 0x144 <main+0x5a>

00000146 <__vector_3>:
//////////////////////////////
///// INTERRUPTS
//////////////////////////////

ISR (TIMER1_COMPA_vect)
{
 146:	1f 92       	push	r1
 148:	0f 92       	push	r0
 14a:	0f b6       	in	r0, 0x3f	; 63
 14c:	0f 92       	push	r0
 14e:	11 24       	eor	r1, r1
 150:	cf 92       	push	r12
 152:	df 92       	push	r13
 154:	ef 92       	push	r14
 156:	ff 92       	push	r15
 158:	2f 93       	push	r18
 15a:	3f 93       	push	r19
 15c:	4f 93       	push	r20
 15e:	5f 93       	push	r21
 160:	6f 93       	push	r22
 162:	7f 93       	push	r23
 164:	8f 93       	push	r24
 166:	9f 93       	push	r25
 168:	af 93       	push	r26
 16a:	bf 93       	push	r27
 16c:	ef 93       	push	r30
 16e:	ff 93       	push	r31
	// Normal/SWEEP mode freq adjust
	switch(currentMode)
 170:	80 91 60 00 	lds	r24, 0x0060	; 0x800060 <_edata>
 174:	88 23       	and	r24, r24
 176:	19 f0       	breq	.+6      	; 0x17e <__vector_3+0x38>
 178:	82 30       	cpi	r24, 0x02	; 2
 17a:	b1 f0       	breq	.+44     	; 0x1a8 <__vector_3+0x62>
 17c:	5a c0       	rjmp	.+180    	; 0x232 <__vector_3+0xec>
	{
		// as the pot is turned CW the clock duty will decrease, a duty less than 2 is bad
		case NORMAL:
			if((upperpot / 16) < 2)
 17e:	80 91 63 00 	lds	r24, 0x0063	; 0x800063 <upperpot>
 182:	90 91 64 00 	lds	r25, 0x0064	; 0x800064 <upperpot+0x1>
 186:	80 97       	sbiw	r24, 0x20	; 32
 188:	18 f4       	brcc	.+6      	; 0x190 <__vector_3+0x4a>
			{
				OCR1C = 2;
 18a:	82 e0       	ldi	r24, 0x02	; 2
 18c:	8d bd       	out	0x2d, r24	; 45
 18e:	51 c0       	rjmp	.+162    	; 0x232 <__vector_3+0xec>
			}
			else
			{
				OCR1C = (upperpot / 16);
 190:	80 91 63 00 	lds	r24, 0x0063	; 0x800063 <upperpot>
 194:	90 91 64 00 	lds	r25, 0x0064	; 0x800064 <upperpot+0x1>
 198:	92 95       	swap	r25
 19a:	82 95       	swap	r24
 19c:	8f 70       	andi	r24, 0x0F	; 15
 19e:	89 27       	eor	r24, r25
 1a0:	9f 70       	andi	r25, 0x0F	; 15
 1a2:	89 27       	eor	r24, r25
 1a4:	8d bd       	out	0x2d, r24	; 45
 1a6:	45 c0       	rjmp	.+138    	; 0x232 <__vector_3+0xec>
			
			
			
			break;
		case SWEEP:
			OCR1C= (upperpot / (lowerpot/16)) * weight;
 1a8:	80 91 63 00 	lds	r24, 0x0063	; 0x800063 <upperpot>
 1ac:	90 91 64 00 	lds	r25, 0x0064	; 0x800064 <upperpot+0x1>
 1b0:	60 91 61 00 	lds	r22, 0x0061	; 0x800061 <lowerpot>
 1b4:	70 91 62 00 	lds	r23, 0x0062	; 0x800062 <lowerpot+0x1>
 1b8:	c0 90 6b 00 	lds	r12, 0x006B	; 0x80006b <weight>
 1bc:	d0 90 6c 00 	lds	r13, 0x006C	; 0x80006c <weight+0x1>
 1c0:	e0 90 6d 00 	lds	r14, 0x006D	; 0x80006d <weight+0x2>
 1c4:	f0 90 6e 00 	lds	r15, 0x006E	; 0x80006e <weight+0x3>
 1c8:	72 95       	swap	r23
 1ca:	62 95       	swap	r22
 1cc:	6f 70       	andi	r22, 0x0F	; 15
 1ce:	67 27       	eor	r22, r23
 1d0:	7f 70       	andi	r23, 0x0F	; 15
 1d2:	67 27       	eor	r22, r23
 1d4:	f0 d2       	rcall	.+1504   	; 0x7b6 <__udivmodhi4>
 1d6:	80 e0       	ldi	r24, 0x00	; 0
 1d8:	90 e0       	ldi	r25, 0x00	; 0
 1da:	f4 d1       	rcall	.+1000   	; 0x5c4 <__floatunsisf>
 1dc:	a7 01       	movw	r20, r14
 1de:	96 01       	movw	r18, r12
 1e0:	7f d2       	rcall	.+1278   	; 0x6e0 <__mulsf3>
 1e2:	c4 d1       	rcall	.+904    	; 0x56c <__fixunssfsi>
 1e4:	6d bd       	out	0x2d, r22	; 45
			weight=weight+0.5;
 1e6:	60 91 6b 00 	lds	r22, 0x006B	; 0x80006b <weight>
 1ea:	70 91 6c 00 	lds	r23, 0x006C	; 0x80006c <weight+0x1>
 1ee:	80 91 6d 00 	lds	r24, 0x006D	; 0x80006d <weight+0x2>
 1f2:	90 91 6e 00 	lds	r25, 0x006E	; 0x80006e <weight+0x3>
 1f6:	20 e0       	ldi	r18, 0x00	; 0
 1f8:	30 e0       	ldi	r19, 0x00	; 0
 1fa:	40 e0       	ldi	r20, 0x00	; 0
 1fc:	5f e3       	ldi	r21, 0x3F	; 63
 1fe:	52 d1       	rcall	.+676    	; 0x4a4 <__addsf3>
 200:	60 93 6b 00 	sts	0x006B, r22	; 0x80006b <weight>
 204:	70 93 6c 00 	sts	0x006C, r23	; 0x80006c <weight+0x1>
 208:	80 93 6d 00 	sts	0x006D, r24	; 0x80006d <weight+0x2>
 20c:	90 93 6e 00 	sts	0x006E, r25	; 0x80006e <weight+0x3>
			if (OCR1C > (upperpot)) 
 210:	8d b5       	in	r24, 0x2d	; 45
 212:	20 91 63 00 	lds	r18, 0x0063	; 0x800063 <upperpot>
 216:	30 91 64 00 	lds	r19, 0x0064	; 0x800064 <upperpot+0x1>
 21a:	90 e0       	ldi	r25, 0x00	; 0
 21c:	28 17       	cp	r18, r24
 21e:	39 07       	cpc	r19, r25
 220:	40 f4       	brcc	.+16     	; 0x232 <__vector_3+0xec>
			{
				weight = 0;
 222:	10 92 6b 00 	sts	0x006B, r1	; 0x80006b <weight>
 226:	10 92 6c 00 	sts	0x006C, r1	; 0x80006c <weight+0x1>
 22a:	10 92 6d 00 	sts	0x006D, r1	; 0x80006d <weight+0x2>
 22e:	10 92 6e 00 	sts	0x006E, r1	; 0x80006e <weight+0x3>
			}
			break;
	}
			
	
}
 232:	ff 91       	pop	r31
 234:	ef 91       	pop	r30
 236:	bf 91       	pop	r27
 238:	af 91       	pop	r26
 23a:	9f 91       	pop	r25
 23c:	8f 91       	pop	r24
 23e:	7f 91       	pop	r23
 240:	6f 91       	pop	r22
 242:	5f 91       	pop	r21
 244:	4f 91       	pop	r20
 246:	3f 91       	pop	r19
 248:	2f 91       	pop	r18
 24a:	ff 90       	pop	r15
 24c:	ef 90       	pop	r14
 24e:	df 90       	pop	r13
 250:	cf 90       	pop	r12
 252:	0f 90       	pop	r0
 254:	0f be       	out	0x3f, r0	; 63
 256:	0f 90       	pop	r0
 258:	1f 90       	pop	r1
 25a:	18 95       	reti

0000025c <__vector_10>:

ISR (TIMER0_COMPA_vect)
{
 25c:	1f 92       	push	r1
 25e:	0f 92       	push	r0
 260:	0f b6       	in	r0, 0x3f	; 63
 262:	0f 92       	push	r0
 264:	11 24       	eor	r1, r1
 266:	2f 93       	push	r18
 268:	3f 93       	push	r19
 26a:	8f 93       	push	r24
 26c:	9f 93       	push	r25
	// Skew mode freq adjust
	
	
	
	// update high duty (upperpot mapped 10bit -> 8Bit)
	if((upperpot / 16) > (lowerpot / 16)) 
 26e:	20 91 63 00 	lds	r18, 0x0063	; 0x800063 <upperpot>
 272:	30 91 64 00 	lds	r19, 0x0064	; 0x800064 <upperpot+0x1>
 276:	80 91 61 00 	lds	r24, 0x0061	; 0x800061 <lowerpot>
 27a:	90 91 62 00 	lds	r25, 0x0062	; 0x800062 <lowerpot+0x1>
 27e:	32 95       	swap	r19
 280:	22 95       	swap	r18
 282:	2f 70       	andi	r18, 0x0F	; 15
 284:	23 27       	eor	r18, r19
 286:	3f 70       	andi	r19, 0x0F	; 15
 288:	23 27       	eor	r18, r19
 28a:	92 95       	swap	r25
 28c:	82 95       	swap	r24
 28e:	8f 70       	andi	r24, 0x0F	; 15
 290:	89 27       	eor	r24, r25
 292:	9f 70       	andi	r25, 0x0F	; 15
 294:	89 27       	eor	r24, r25
 296:	82 17       	cp	r24, r18
 298:	93 07       	cpc	r25, r19
 29a:	60 f0       	brcs	.+24     	; 0x2b4 <__stack+0x55>
	{
		
	}
	else 
	{
		OCR0B=0x1 + (upperpot / 16);
 29c:	80 91 63 00 	lds	r24, 0x0063	; 0x800063 <upperpot>
 2a0:	90 91 64 00 	lds	r25, 0x0064	; 0x800064 <upperpot+0x1>
 2a4:	92 95       	swap	r25
 2a6:	82 95       	swap	r24
 2a8:	8f 70       	andi	r24, 0x0F	; 15
 2aa:	89 27       	eor	r24, r25
 2ac:	9f 70       	andi	r25, 0x0F	; 15
 2ae:	89 27       	eor	r24, r25
 2b0:	8f 5f       	subi	r24, 0xFF	; 255
 2b2:	88 bd       	out	0x28, r24	; 40
	}
	
	
	// update low duty (lowerpot mapped 10bit -> 8Bit)
	if((lowerpot / 16) < (upperpot / 16)) 
 2b4:	20 91 61 00 	lds	r18, 0x0061	; 0x800061 <lowerpot>
 2b8:	30 91 62 00 	lds	r19, 0x0062	; 0x800062 <lowerpot+0x1>
 2bc:	80 91 63 00 	lds	r24, 0x0063	; 0x800063 <upperpot>
 2c0:	90 91 64 00 	lds	r25, 0x0064	; 0x800064 <upperpot+0x1>
 2c4:	32 95       	swap	r19
 2c6:	22 95       	swap	r18
 2c8:	2f 70       	andi	r18, 0x0F	; 15
 2ca:	23 27       	eor	r18, r19
 2cc:	3f 70       	andi	r19, 0x0F	; 15
 2ce:	23 27       	eor	r18, r19
 2d0:	92 95       	swap	r25
 2d2:	82 95       	swap	r24
 2d4:	8f 70       	andi	r24, 0x0F	; 15
 2d6:	89 27       	eor	r24, r25
 2d8:	9f 70       	andi	r25, 0x0F	; 15
 2da:	89 27       	eor	r24, r25
 2dc:	28 17       	cp	r18, r24
 2de:	39 07       	cpc	r19, r25
 2e0:	60 f0       	brcs	.+24     	; 0x2fa <__stack+0x9b>
	{
		
	}
	else 
	{
		OCR0A=0x1 + (lowerpot / 16);
 2e2:	80 91 61 00 	lds	r24, 0x0061	; 0x800061 <lowerpot>
 2e6:	90 91 62 00 	lds	r25, 0x0062	; 0x800062 <lowerpot+0x1>
 2ea:	92 95       	swap	r25
 2ec:	82 95       	swap	r24
 2ee:	8f 70       	andi	r24, 0x0F	; 15
 2f0:	89 27       	eor	r24, r25
 2f2:	9f 70       	andi	r25, 0x0F	; 15
 2f4:	89 27       	eor	r24, r25
 2f6:	8f 5f       	subi	r24, 0xFF	; 255
 2f8:	89 bd       	out	0x29, r24	; 41
	}
	
	

}
 2fa:	9f 91       	pop	r25
 2fc:	8f 91       	pop	r24
 2fe:	3f 91       	pop	r19
 300:	2f 91       	pop	r18
 302:	0f 90       	pop	r0
 304:	0f be       	out	0x3f, r0	; 63
 306:	0f 90       	pop	r0
 308:	1f 90       	pop	r1
 30a:	18 95       	reti

0000030c <__vector_12>:

ISR (WDT_vect)
{
 30c:	1f 92       	push	r1
 30e:	0f 92       	push	r0
 310:	0f b6       	in	r0, 0x3f	; 63
 312:	0f 92       	push	r0
 314:	11 24       	eor	r1, r1
 316:	8f 93       	push	r24
 318:	9f 93       	push	r25
	// increment the counter
	wdcounter++;
 31a:	80 91 69 00 	lds	r24, 0x0069	; 0x800069 <wdcounter>
 31e:	90 91 6a 00 	lds	r25, 0x006A	; 0x80006a <wdcounter+0x1>
 322:	01 96       	adiw	r24, 0x01	; 1
 324:	90 93 6a 00 	sts	0x006A, r25	; 0x80006a <wdcounter+0x1>
 328:	80 93 69 00 	sts	0x0069, r24	; 0x800069 <wdcounter>
	// re-enable the WDG interrupt to prevent device reset.
	WDTCR |= (1<<WDIE);
 32c:	81 b5       	in	r24, 0x21	; 33
 32e:	80 64       	ori	r24, 0x40	; 64
 330:	81 bd       	out	0x21, r24	; 33
}
 332:	9f 91       	pop	r25
 334:	8f 91       	pop	r24
 336:	0f 90       	pop	r0
 338:	0f be       	out	0x3f, r0	; 63
 33a:	0f 90       	pop	r0
 33c:	1f 90       	pop	r1
 33e:	18 95       	reti

00000340 <__vector_2>:

ISR (PCINT0_vect)
{
 340:	1f 92       	push	r1
 342:	0f 92       	push	r0
 344:	0f b6       	in	r0, 0x3f	; 63
 346:	0f 92       	push	r0
 348:	11 24       	eor	r1, r1
 34a:	cf 92       	push	r12
 34c:	df 92       	push	r13
 34e:	ef 92       	push	r14
 350:	ff 92       	push	r15
 352:	2f 93       	push	r18
 354:	3f 93       	push	r19
 356:	4f 93       	push	r20
 358:	5f 93       	push	r21
 35a:	6f 93       	push	r22
 35c:	7f 93       	push	r23
 35e:	8f 93       	push	r24
 360:	9f 93       	push	r25
 362:	af 93       	push	r26
 364:	bf 93       	push	r27
 366:	ef 93       	push	r30
 368:	ff 93       	push	r31
	// check for bounce
	uint32_t interrupt_time = wdcounter;
 36a:	c0 90 69 00 	lds	r12, 0x0069	; 0x800069 <wdcounter>
 36e:	d0 90 6a 00 	lds	r13, 0x006A	; 0x80006a <wdcounter+0x1>
 372:	e1 2c       	mov	r14, r1
 374:	f1 2c       	mov	r15, r1
	if (interrupt_time - pd0_last_interrupt_time > DEBOUNCE_DELAY) 
 376:	80 91 65 00 	lds	r24, 0x0065	; 0x800065 <pd0_last_interrupt_time>
 37a:	90 91 66 00 	lds	r25, 0x0066	; 0x800066 <pd0_last_interrupt_time+0x1>
 37e:	a0 91 67 00 	lds	r26, 0x0067	; 0x800067 <pd0_last_interrupt_time+0x2>
 382:	b0 91 68 00 	lds	r27, 0x0068	; 0x800068 <pd0_last_interrupt_time+0x3>
 386:	a7 01       	movw	r20, r14
 388:	96 01       	movw	r18, r12
 38a:	28 1b       	sub	r18, r24
 38c:	39 0b       	sbc	r19, r25
 38e:	4a 0b       	sbc	r20, r26
 390:	5b 0b       	sbc	r21, r27
 392:	2d 33       	cpi	r18, 0x3D	; 61
 394:	31 05       	cpc	r19, r1
 396:	41 05       	cpc	r20, r1
 398:	51 05       	cpc	r21, r1
 39a:	00 f1       	brcs	.+64     	; 0x3dc <__vector_2+0x9c>
	{
		// toggle the control mode
		switch(currentMode) 
 39c:	80 91 60 00 	lds	r24, 0x0060	; 0x800060 <_edata>
 3a0:	81 30       	cpi	r24, 0x01	; 1
 3a2:	49 f0       	breq	.+18     	; 0x3b6 <__vector_2+0x76>
 3a4:	18 f0       	brcs	.+6      	; 0x3ac <__vector_2+0x6c>
 3a6:	82 30       	cpi	r24, 0x02	; 2
 3a8:	61 f0       	breq	.+24     	; 0x3c2 <__vector_2+0x82>
 3aa:	10 c0       	rjmp	.+32     	; 0x3cc <__vector_2+0x8c>
		{
			case NORMAL:
				
				TimerModeEnable(SKEW);
 3ac:	81 e0       	ldi	r24, 0x01	; 1
 3ae:	5e de       	rcall	.-836    	; 0x6c <TimerModeEnable>
				setModeIndicator(SKEW);
 3b0:	81 e0       	ldi	r24, 0x01	; 1
 3b2:	4b de       	rcall	.-874    	; 0x4a <setModeIndicator>

				break;
 3b4:	0b c0       	rjmp	.+22     	; 0x3cc <__vector_2+0x8c>

			case SKEW:
				
				setModeIndicator(SWEEP);
 3b6:	82 e0       	ldi	r24, 0x02	; 2
 3b8:	48 de       	rcall	.-880    	; 0x4a <setModeIndicator>
				TimerModeEnable(SWEEP);
 3ba:	82 e0       	ldi	r24, 0x02	; 2
 3bc:	57 de       	rcall	.-850    	; 0x6c <TimerModeEnable>
				resetPWM();
 3be:	40 de       	rcall	.-896    	; 0x40 <resetPWM>
				break;	
 3c0:	05 c0       	rjmp	.+10     	; 0x3cc <__vector_2+0x8c>

			case SWEEP:
				
				setModeIndicator(NORMAL);
 3c2:	80 e0       	ldi	r24, 0x00	; 0
 3c4:	42 de       	rcall	.-892    	; 0x4a <setModeIndicator>
				TimerModeEnable(NORMAL);
 3c6:	80 e0       	ldi	r24, 0x00	; 0
 3c8:	51 de       	rcall	.-862    	; 0x6c <TimerModeEnable>
				resetPWM();
 3ca:	3a de       	rcall	.-908    	; 0x40 <resetPWM>
				
				break;
		}
		// store the tick of the last successful press
		pd0_last_interrupt_time = interrupt_time;
 3cc:	c0 92 65 00 	sts	0x0065, r12	; 0x800065 <pd0_last_interrupt_time>
 3d0:	d0 92 66 00 	sts	0x0066, r13	; 0x800066 <pd0_last_interrupt_time+0x1>
 3d4:	e0 92 67 00 	sts	0x0067, r14	; 0x800067 <pd0_last_interrupt_time+0x2>
 3d8:	f0 92 68 00 	sts	0x0068, r15	; 0x800068 <pd0_last_interrupt_time+0x3>
	
	}
}
 3dc:	ff 91       	pop	r31
 3de:	ef 91       	pop	r30
 3e0:	bf 91       	pop	r27
 3e2:	af 91       	pop	r26
 3e4:	9f 91       	pop	r25
 3e6:	8f 91       	pop	r24
 3e8:	7f 91       	pop	r23
 3ea:	6f 91       	pop	r22
 3ec:	5f 91       	pop	r21
 3ee:	4f 91       	pop	r20
 3f0:	3f 91       	pop	r19
 3f2:	2f 91       	pop	r18
 3f4:	ff 90       	pop	r15
 3f6:	ef 90       	pop	r14
 3f8:	df 90       	pop	r13
 3fa:	cf 90       	pop	r12
 3fc:	0f 90       	pop	r0
 3fe:	0f be       	out	0x3f, r0	; 63
 400:	0f 90       	pop	r0
 402:	1f 90       	pop	r1
 404:	18 95       	reti

00000406 <__vector_8>:

ISR (ADC_vect)
{
 406:	1f 92       	push	r1
 408:	0f 92       	push	r0
 40a:	0f b6       	in	r0, 0x3f	; 63
 40c:	0f 92       	push	r0
 40e:	11 24       	eor	r1, r1
 410:	2f 93       	push	r18
 412:	3f 93       	push	r19
 414:	8f 93       	push	r24
 416:	9f 93       	push	r25
	// 1.check current adc mux channel
	// 2.read ADC result
	// 3.enable the next contiguous mux channel
	
	switch(ADMUX) {
 418:	87 b1       	in	r24, 0x07	; 7
 41a:	82 30       	cpi	r24, 0x02	; 2
 41c:	19 f0       	breq	.+6      	; 0x424 <__vector_8+0x1e>
 41e:	83 30       	cpi	r24, 0x03	; 3
 420:	e9 f0       	breq	.+58     	; 0x45c <__vector_8+0x56>
 422:	35 c0       	rjmp	.+106    	; 0x48e <__vector_8+0x88>
		
		// if ADLAR bit set, use switch case mask '_ADCLA | _ADCXEN'
		// if ADLAR bit cleared, use switch case mask '_ADCXEN'
		
		case _ADC2EN:
		upperpot = ADCL;				// read 8 LSB
 424:	84 b1       	in	r24, 0x04	; 4
 426:	90 e0       	ldi	r25, 0x00	; 0
 428:	90 93 64 00 	sts	0x0064, r25	; 0x800064 <upperpot+0x1>
 42c:	80 93 63 00 	sts	0x0063, r24	; 0x800063 <upperpot>
		upperpot += ADCH << 8;		// read 2 MSB, shift them left 8 positions and add to LSB. Result = 2MSB + 8LSB
 430:	95 b1       	in	r25, 0x05	; 5
 432:	20 91 63 00 	lds	r18, 0x0063	; 0x800063 <upperpot>
 436:	30 91 64 00 	lds	r19, 0x0064	; 0x800064 <upperpot+0x1>
 43a:	89 2f       	mov	r24, r25
 43c:	90 e0       	ldi	r25, 0x00	; 0
 43e:	98 2f       	mov	r25, r24
 440:	88 27       	eor	r24, r24
 442:	82 0f       	add	r24, r18
 444:	93 1f       	adc	r25, r19
 446:	90 93 64 00 	sts	0x0064, r25	; 0x800064 <upperpot+0x1>
 44a:	80 93 63 00 	sts	0x0063, r24	; 0x800063 <upperpot>
		ADMUX &= _ADCLA | _ADC0EN;		//  clear MUX bits whilst retaining ADC Left Adjust Result
 44e:	87 b1       	in	r24, 0x07	; 7
 450:	80 72       	andi	r24, 0x20	; 32
 452:	87 b9       	out	0x07, r24	; 7
		ADMUX |= _ADC3EN;				// set ADC3 for next check
 454:	87 b1       	in	r24, 0x07	; 7
 456:	83 60       	ori	r24, 0x03	; 3
 458:	87 b9       	out	0x07, r24	; 7
		break;
 45a:	19 c0       	rjmp	.+50     	; 0x48e <__vector_8+0x88>
		
		case _ADC3EN:
		lowerpot = ADCL;				// read 8 LSB
 45c:	84 b1       	in	r24, 0x04	; 4
 45e:	90 e0       	ldi	r25, 0x00	; 0
 460:	90 93 62 00 	sts	0x0062, r25	; 0x800062 <lowerpot+0x1>
 464:	80 93 61 00 	sts	0x0061, r24	; 0x800061 <lowerpot>
		lowerpot += ADCH << 8;		// read 2 MSB, shift them left 8 positions and add to LSB. Result = 2MSB + 8LSB
 468:	95 b1       	in	r25, 0x05	; 5
 46a:	20 91 61 00 	lds	r18, 0x0061	; 0x800061 <lowerpot>
 46e:	30 91 62 00 	lds	r19, 0x0062	; 0x800062 <lowerpot+0x1>
 472:	89 2f       	mov	r24, r25
 474:	90 e0       	ldi	r25, 0x00	; 0
 476:	98 2f       	mov	r25, r24
 478:	88 27       	eor	r24, r24
 47a:	82 0f       	add	r24, r18
 47c:	93 1f       	adc	r25, r19
 47e:	90 93 62 00 	sts	0x0062, r25	; 0x800062 <lowerpot+0x1>
 482:	80 93 61 00 	sts	0x0061, r24	; 0x800061 <lowerpot>
		ADMUX &= _ADCLA | _ADC0EN;		// clear MUX bits whilst retaining ADC Left Adjust Result
 486:	87 b1       	in	r24, 0x07	; 7
 488:	80 72       	andi	r24, 0x20	; 32
 48a:	87 b9       	out	0x07, r24	; 7
		ADMUX |= _ADC2EN;				// set ADC2 for check
 48c:	39 9a       	sbi	0x07, 1	; 7
		break;
		
	}
	// Start the next AD conversion
	ADCSRA|=(1<<ADSC);
 48e:	36 9a       	sbi	0x06, 6	; 6
}
 490:	9f 91       	pop	r25
 492:	8f 91       	pop	r24
 494:	3f 91       	pop	r19
 496:	2f 91       	pop	r18
 498:	0f 90       	pop	r0
 49a:	0f be       	out	0x3f, r0	; 63
 49c:	0f 90       	pop	r0
 49e:	1f 90       	pop	r1
 4a0:	18 95       	reti

000004a2 <__subsf3>:
 4a2:	50 58       	subi	r21, 0x80	; 128

000004a4 <__addsf3>:
 4a4:	bb 27       	eor	r27, r27
 4a6:	aa 27       	eor	r26, r26
 4a8:	0e d0       	rcall	.+28     	; 0x4c6 <__addsf3x>
 4aa:	e0 c0       	rjmp	.+448    	; 0x66c <__fp_round>
 4ac:	d1 d0       	rcall	.+418    	; 0x650 <__fp_pscA>
 4ae:	30 f0       	brcs	.+12     	; 0x4bc <__addsf3+0x18>
 4b0:	d6 d0       	rcall	.+428    	; 0x65e <__fp_pscB>
 4b2:	20 f0       	brcs	.+8      	; 0x4bc <__addsf3+0x18>
 4b4:	31 f4       	brne	.+12     	; 0x4c2 <__addsf3+0x1e>
 4b6:	9f 3f       	cpi	r25, 0xFF	; 255
 4b8:	11 f4       	brne	.+4      	; 0x4be <__addsf3+0x1a>
 4ba:	1e f4       	brtc	.+6      	; 0x4c2 <__addsf3+0x1e>
 4bc:	c6 c0       	rjmp	.+396    	; 0x64a <__fp_nan>
 4be:	0e f4       	brtc	.+2      	; 0x4c2 <__addsf3+0x1e>
 4c0:	e0 95       	com	r30
 4c2:	e7 fb       	bst	r30, 7
 4c4:	bc c0       	rjmp	.+376    	; 0x63e <__fp_inf>

000004c6 <__addsf3x>:
 4c6:	e9 2f       	mov	r30, r25
 4c8:	e2 d0       	rcall	.+452    	; 0x68e <__fp_split3>
 4ca:	80 f3       	brcs	.-32     	; 0x4ac <__addsf3+0x8>
 4cc:	ba 17       	cp	r27, r26
 4ce:	62 07       	cpc	r22, r18
 4d0:	73 07       	cpc	r23, r19
 4d2:	84 07       	cpc	r24, r20
 4d4:	95 07       	cpc	r25, r21
 4d6:	18 f0       	brcs	.+6      	; 0x4de <__addsf3x+0x18>
 4d8:	71 f4       	brne	.+28     	; 0x4f6 <__addsf3x+0x30>
 4da:	9e f5       	brtc	.+102    	; 0x542 <__addsf3x+0x7c>
 4dc:	fa c0       	rjmp	.+500    	; 0x6d2 <__fp_zero>
 4de:	0e f4       	brtc	.+2      	; 0x4e2 <__addsf3x+0x1c>
 4e0:	e0 95       	com	r30
 4e2:	0b 2e       	mov	r0, r27
 4e4:	ba 2f       	mov	r27, r26
 4e6:	a0 2d       	mov	r26, r0
 4e8:	0b 01       	movw	r0, r22
 4ea:	b9 01       	movw	r22, r18
 4ec:	90 01       	movw	r18, r0
 4ee:	0c 01       	movw	r0, r24
 4f0:	ca 01       	movw	r24, r20
 4f2:	a0 01       	movw	r20, r0
 4f4:	11 24       	eor	r1, r1
 4f6:	ff 27       	eor	r31, r31
 4f8:	59 1b       	sub	r21, r25
 4fa:	99 f0       	breq	.+38     	; 0x522 <__addsf3x+0x5c>
 4fc:	59 3f       	cpi	r21, 0xF9	; 249
 4fe:	50 f4       	brcc	.+20     	; 0x514 <__addsf3x+0x4e>
 500:	50 3e       	cpi	r21, 0xE0	; 224
 502:	68 f1       	brcs	.+90     	; 0x55e <__addsf3x+0x98>
 504:	1a 16       	cp	r1, r26
 506:	f0 40       	sbci	r31, 0x00	; 0
 508:	a2 2f       	mov	r26, r18
 50a:	23 2f       	mov	r18, r19
 50c:	34 2f       	mov	r19, r20
 50e:	44 27       	eor	r20, r20
 510:	58 5f       	subi	r21, 0xF8	; 248
 512:	f3 cf       	rjmp	.-26     	; 0x4fa <__addsf3x+0x34>
 514:	46 95       	lsr	r20
 516:	37 95       	ror	r19
 518:	27 95       	ror	r18
 51a:	a7 95       	ror	r26
 51c:	f0 40       	sbci	r31, 0x00	; 0
 51e:	53 95       	inc	r21
 520:	c9 f7       	brne	.-14     	; 0x514 <__addsf3x+0x4e>
 522:	7e f4       	brtc	.+30     	; 0x542 <__addsf3x+0x7c>
 524:	1f 16       	cp	r1, r31
 526:	ba 0b       	sbc	r27, r26
 528:	62 0b       	sbc	r22, r18
 52a:	73 0b       	sbc	r23, r19
 52c:	84 0b       	sbc	r24, r20
 52e:	ba f0       	brmi	.+46     	; 0x55e <__addsf3x+0x98>
 530:	91 50       	subi	r25, 0x01	; 1
 532:	a1 f0       	breq	.+40     	; 0x55c <__addsf3x+0x96>
 534:	ff 0f       	add	r31, r31
 536:	bb 1f       	adc	r27, r27
 538:	66 1f       	adc	r22, r22
 53a:	77 1f       	adc	r23, r23
 53c:	88 1f       	adc	r24, r24
 53e:	c2 f7       	brpl	.-16     	; 0x530 <__addsf3x+0x6a>
 540:	0e c0       	rjmp	.+28     	; 0x55e <__addsf3x+0x98>
 542:	ba 0f       	add	r27, r26
 544:	62 1f       	adc	r22, r18
 546:	73 1f       	adc	r23, r19
 548:	84 1f       	adc	r24, r20
 54a:	48 f4       	brcc	.+18     	; 0x55e <__addsf3x+0x98>
 54c:	87 95       	ror	r24
 54e:	77 95       	ror	r23
 550:	67 95       	ror	r22
 552:	b7 95       	ror	r27
 554:	f7 95       	ror	r31
 556:	9e 3f       	cpi	r25, 0xFE	; 254
 558:	08 f0       	brcs	.+2      	; 0x55c <__addsf3x+0x96>
 55a:	b3 cf       	rjmp	.-154    	; 0x4c2 <__addsf3+0x1e>
 55c:	93 95       	inc	r25
 55e:	88 0f       	add	r24, r24
 560:	08 f0       	brcs	.+2      	; 0x564 <__addsf3x+0x9e>
 562:	99 27       	eor	r25, r25
 564:	ee 0f       	add	r30, r30
 566:	97 95       	ror	r25
 568:	87 95       	ror	r24
 56a:	08 95       	ret

0000056c <__fixunssfsi>:
 56c:	98 d0       	rcall	.+304    	; 0x69e <__fp_splitA>
 56e:	88 f0       	brcs	.+34     	; 0x592 <__fixunssfsi+0x26>
 570:	9f 57       	subi	r25, 0x7F	; 127
 572:	90 f0       	brcs	.+36     	; 0x598 <__fixunssfsi+0x2c>
 574:	b9 2f       	mov	r27, r25
 576:	99 27       	eor	r25, r25
 578:	b7 51       	subi	r27, 0x17	; 23
 57a:	a0 f0       	brcs	.+40     	; 0x5a4 <__fixunssfsi+0x38>
 57c:	d1 f0       	breq	.+52     	; 0x5b2 <__fixunssfsi+0x46>
 57e:	66 0f       	add	r22, r22
 580:	77 1f       	adc	r23, r23
 582:	88 1f       	adc	r24, r24
 584:	99 1f       	adc	r25, r25
 586:	1a f0       	brmi	.+6      	; 0x58e <__fixunssfsi+0x22>
 588:	ba 95       	dec	r27
 58a:	c9 f7       	brne	.-14     	; 0x57e <__fixunssfsi+0x12>
 58c:	12 c0       	rjmp	.+36     	; 0x5b2 <__fixunssfsi+0x46>
 58e:	b1 30       	cpi	r27, 0x01	; 1
 590:	81 f0       	breq	.+32     	; 0x5b2 <__fixunssfsi+0x46>
 592:	9f d0       	rcall	.+318    	; 0x6d2 <__fp_zero>
 594:	b1 e0       	ldi	r27, 0x01	; 1
 596:	08 95       	ret
 598:	9c c0       	rjmp	.+312    	; 0x6d2 <__fp_zero>
 59a:	67 2f       	mov	r22, r23
 59c:	78 2f       	mov	r23, r24
 59e:	88 27       	eor	r24, r24
 5a0:	b8 5f       	subi	r27, 0xF8	; 248
 5a2:	39 f0       	breq	.+14     	; 0x5b2 <__fixunssfsi+0x46>
 5a4:	b9 3f       	cpi	r27, 0xF9	; 249
 5a6:	cc f3       	brlt	.-14     	; 0x59a <__fixunssfsi+0x2e>
 5a8:	86 95       	lsr	r24
 5aa:	77 95       	ror	r23
 5ac:	67 95       	ror	r22
 5ae:	b3 95       	inc	r27
 5b0:	d9 f7       	brne	.-10     	; 0x5a8 <__fixunssfsi+0x3c>
 5b2:	3e f4       	brtc	.+14     	; 0x5c2 <__fixunssfsi+0x56>
 5b4:	90 95       	com	r25
 5b6:	80 95       	com	r24
 5b8:	70 95       	com	r23
 5ba:	61 95       	neg	r22
 5bc:	7f 4f       	sbci	r23, 0xFF	; 255
 5be:	8f 4f       	sbci	r24, 0xFF	; 255
 5c0:	9f 4f       	sbci	r25, 0xFF	; 255
 5c2:	08 95       	ret

000005c4 <__floatunsisf>:
 5c4:	e8 94       	clt
 5c6:	09 c0       	rjmp	.+18     	; 0x5da <__floatsisf+0x12>

000005c8 <__floatsisf>:
 5c8:	97 fb       	bst	r25, 7
 5ca:	3e f4       	brtc	.+14     	; 0x5da <__floatsisf+0x12>
 5cc:	90 95       	com	r25
 5ce:	80 95       	com	r24
 5d0:	70 95       	com	r23
 5d2:	61 95       	neg	r22
 5d4:	7f 4f       	sbci	r23, 0xFF	; 255
 5d6:	8f 4f       	sbci	r24, 0xFF	; 255
 5d8:	9f 4f       	sbci	r25, 0xFF	; 255
 5da:	99 23       	and	r25, r25
 5dc:	a9 f0       	breq	.+42     	; 0x608 <__floatsisf+0x40>
 5de:	f9 2f       	mov	r31, r25
 5e0:	96 e9       	ldi	r25, 0x96	; 150
 5e2:	bb 27       	eor	r27, r27
 5e4:	93 95       	inc	r25
 5e6:	f6 95       	lsr	r31
 5e8:	87 95       	ror	r24
 5ea:	77 95       	ror	r23
 5ec:	67 95       	ror	r22
 5ee:	b7 95       	ror	r27
 5f0:	f1 11       	cpse	r31, r1
 5f2:	f8 cf       	rjmp	.-16     	; 0x5e4 <__floatsisf+0x1c>
 5f4:	fa f4       	brpl	.+62     	; 0x634 <__floatsisf+0x6c>
 5f6:	bb 0f       	add	r27, r27
 5f8:	11 f4       	brne	.+4      	; 0x5fe <__floatsisf+0x36>
 5fa:	60 ff       	sbrs	r22, 0
 5fc:	1b c0       	rjmp	.+54     	; 0x634 <__floatsisf+0x6c>
 5fe:	6f 5f       	subi	r22, 0xFF	; 255
 600:	7f 4f       	sbci	r23, 0xFF	; 255
 602:	8f 4f       	sbci	r24, 0xFF	; 255
 604:	9f 4f       	sbci	r25, 0xFF	; 255
 606:	16 c0       	rjmp	.+44     	; 0x634 <__floatsisf+0x6c>
 608:	88 23       	and	r24, r24
 60a:	11 f0       	breq	.+4      	; 0x610 <__floatsisf+0x48>
 60c:	96 e9       	ldi	r25, 0x96	; 150
 60e:	11 c0       	rjmp	.+34     	; 0x632 <__floatsisf+0x6a>
 610:	77 23       	and	r23, r23
 612:	21 f0       	breq	.+8      	; 0x61c <__floatsisf+0x54>
 614:	9e e8       	ldi	r25, 0x8E	; 142
 616:	87 2f       	mov	r24, r23
 618:	76 2f       	mov	r23, r22
 61a:	05 c0       	rjmp	.+10     	; 0x626 <__floatsisf+0x5e>
 61c:	66 23       	and	r22, r22
 61e:	71 f0       	breq	.+28     	; 0x63c <__floatsisf+0x74>
 620:	96 e8       	ldi	r25, 0x86	; 134
 622:	86 2f       	mov	r24, r22
 624:	70 e0       	ldi	r23, 0x00	; 0
 626:	60 e0       	ldi	r22, 0x00	; 0
 628:	2a f0       	brmi	.+10     	; 0x634 <__floatsisf+0x6c>
 62a:	9a 95       	dec	r25
 62c:	66 0f       	add	r22, r22
 62e:	77 1f       	adc	r23, r23
 630:	88 1f       	adc	r24, r24
 632:	da f7       	brpl	.-10     	; 0x62a <__floatsisf+0x62>
 634:	88 0f       	add	r24, r24
 636:	96 95       	lsr	r25
 638:	87 95       	ror	r24
 63a:	97 f9       	bld	r25, 7
 63c:	08 95       	ret

0000063e <__fp_inf>:
 63e:	97 f9       	bld	r25, 7
 640:	9f 67       	ori	r25, 0x7F	; 127
 642:	80 e8       	ldi	r24, 0x80	; 128
 644:	70 e0       	ldi	r23, 0x00	; 0
 646:	60 e0       	ldi	r22, 0x00	; 0
 648:	08 95       	ret

0000064a <__fp_nan>:
 64a:	9f ef       	ldi	r25, 0xFF	; 255
 64c:	80 ec       	ldi	r24, 0xC0	; 192
 64e:	08 95       	ret

00000650 <__fp_pscA>:
 650:	00 24       	eor	r0, r0
 652:	0a 94       	dec	r0
 654:	16 16       	cp	r1, r22
 656:	17 06       	cpc	r1, r23
 658:	18 06       	cpc	r1, r24
 65a:	09 06       	cpc	r0, r25
 65c:	08 95       	ret

0000065e <__fp_pscB>:
 65e:	00 24       	eor	r0, r0
 660:	0a 94       	dec	r0
 662:	12 16       	cp	r1, r18
 664:	13 06       	cpc	r1, r19
 666:	14 06       	cpc	r1, r20
 668:	05 06       	cpc	r0, r21
 66a:	08 95       	ret

0000066c <__fp_round>:
 66c:	09 2e       	mov	r0, r25
 66e:	03 94       	inc	r0
 670:	00 0c       	add	r0, r0
 672:	11 f4       	brne	.+4      	; 0x678 <__fp_round+0xc>
 674:	88 23       	and	r24, r24
 676:	52 f0       	brmi	.+20     	; 0x68c <__fp_round+0x20>
 678:	bb 0f       	add	r27, r27
 67a:	40 f4       	brcc	.+16     	; 0x68c <__fp_round+0x20>
 67c:	bf 2b       	or	r27, r31
 67e:	11 f4       	brne	.+4      	; 0x684 <__fp_round+0x18>
 680:	60 ff       	sbrs	r22, 0
 682:	04 c0       	rjmp	.+8      	; 0x68c <__fp_round+0x20>
 684:	6f 5f       	subi	r22, 0xFF	; 255
 686:	7f 4f       	sbci	r23, 0xFF	; 255
 688:	8f 4f       	sbci	r24, 0xFF	; 255
 68a:	9f 4f       	sbci	r25, 0xFF	; 255
 68c:	08 95       	ret

0000068e <__fp_split3>:
 68e:	57 fd       	sbrc	r21, 7
 690:	90 58       	subi	r25, 0x80	; 128
 692:	44 0f       	add	r20, r20
 694:	55 1f       	adc	r21, r21
 696:	59 f0       	breq	.+22     	; 0x6ae <__fp_splitA+0x10>
 698:	5f 3f       	cpi	r21, 0xFF	; 255
 69a:	71 f0       	breq	.+28     	; 0x6b8 <__fp_splitA+0x1a>
 69c:	47 95       	ror	r20

0000069e <__fp_splitA>:
 69e:	88 0f       	add	r24, r24
 6a0:	97 fb       	bst	r25, 7
 6a2:	99 1f       	adc	r25, r25
 6a4:	61 f0       	breq	.+24     	; 0x6be <__fp_splitA+0x20>
 6a6:	9f 3f       	cpi	r25, 0xFF	; 255
 6a8:	79 f0       	breq	.+30     	; 0x6c8 <__fp_splitA+0x2a>
 6aa:	87 95       	ror	r24
 6ac:	08 95       	ret
 6ae:	12 16       	cp	r1, r18
 6b0:	13 06       	cpc	r1, r19
 6b2:	14 06       	cpc	r1, r20
 6b4:	55 1f       	adc	r21, r21
 6b6:	f2 cf       	rjmp	.-28     	; 0x69c <__fp_split3+0xe>
 6b8:	46 95       	lsr	r20
 6ba:	f1 df       	rcall	.-30     	; 0x69e <__fp_splitA>
 6bc:	08 c0       	rjmp	.+16     	; 0x6ce <__fp_splitA+0x30>
 6be:	16 16       	cp	r1, r22
 6c0:	17 06       	cpc	r1, r23
 6c2:	18 06       	cpc	r1, r24
 6c4:	99 1f       	adc	r25, r25
 6c6:	f1 cf       	rjmp	.-30     	; 0x6aa <__fp_splitA+0xc>
 6c8:	86 95       	lsr	r24
 6ca:	71 05       	cpc	r23, r1
 6cc:	61 05       	cpc	r22, r1
 6ce:	08 94       	sec
 6d0:	08 95       	ret

000006d2 <__fp_zero>:
 6d2:	e8 94       	clt

000006d4 <__fp_szero>:
 6d4:	bb 27       	eor	r27, r27
 6d6:	66 27       	eor	r22, r22
 6d8:	77 27       	eor	r23, r23
 6da:	cb 01       	movw	r24, r22
 6dc:	97 f9       	bld	r25, 7
 6de:	08 95       	ret

000006e0 <__mulsf3>:
 6e0:	0a d0       	rcall	.+20     	; 0x6f6 <__mulsf3x>
 6e2:	c4 cf       	rjmp	.-120    	; 0x66c <__fp_round>
 6e4:	b5 df       	rcall	.-150    	; 0x650 <__fp_pscA>
 6e6:	28 f0       	brcs	.+10     	; 0x6f2 <__mulsf3+0x12>
 6e8:	ba df       	rcall	.-140    	; 0x65e <__fp_pscB>
 6ea:	18 f0       	brcs	.+6      	; 0x6f2 <__mulsf3+0x12>
 6ec:	95 23       	and	r25, r21
 6ee:	09 f0       	breq	.+2      	; 0x6f2 <__mulsf3+0x12>
 6f0:	a6 cf       	rjmp	.-180    	; 0x63e <__fp_inf>
 6f2:	ab cf       	rjmp	.-170    	; 0x64a <__fp_nan>
 6f4:	ef cf       	rjmp	.-34     	; 0x6d4 <__fp_szero>

000006f6 <__mulsf3x>:
 6f6:	cb df       	rcall	.-106    	; 0x68e <__fp_split3>
 6f8:	a8 f3       	brcs	.-22     	; 0x6e4 <__mulsf3+0x4>

000006fa <__mulsf3_pse>:
 6fa:	99 23       	and	r25, r25
 6fc:	d9 f3       	breq	.-10     	; 0x6f4 <__mulsf3+0x14>
 6fe:	55 23       	and	r21, r21
 700:	c9 f3       	breq	.-14     	; 0x6f4 <__mulsf3+0x14>
 702:	95 0f       	add	r25, r21
 704:	50 e0       	ldi	r21, 0x00	; 0
 706:	55 1f       	adc	r21, r21
 708:	aa 27       	eor	r26, r26
 70a:	ee 27       	eor	r30, r30
 70c:	ff 27       	eor	r31, r31
 70e:	bb 27       	eor	r27, r27
 710:	00 24       	eor	r0, r0
 712:	08 94       	sec
 714:	67 95       	ror	r22
 716:	20 f4       	brcc	.+8      	; 0x720 <__mulsf3_pse+0x26>
 718:	e2 0f       	add	r30, r18
 71a:	f3 1f       	adc	r31, r19
 71c:	b4 1f       	adc	r27, r20
 71e:	0a 1e       	adc	r0, r26
 720:	22 0f       	add	r18, r18
 722:	33 1f       	adc	r19, r19
 724:	44 1f       	adc	r20, r20
 726:	aa 1f       	adc	r26, r26
 728:	66 95       	lsr	r22
 72a:	a9 f7       	brne	.-22     	; 0x716 <__mulsf3_pse+0x1c>
 72c:	77 95       	ror	r23
 72e:	30 f4       	brcc	.+12     	; 0x73c <__mulsf3_pse+0x42>
 730:	f3 0f       	add	r31, r19
 732:	b4 1f       	adc	r27, r20
 734:	0a 1e       	adc	r0, r26
 736:	12 1e       	adc	r1, r18
 738:	08 f4       	brcc	.+2      	; 0x73c <__mulsf3_pse+0x42>
 73a:	63 95       	inc	r22
 73c:	33 0f       	add	r19, r19
 73e:	44 1f       	adc	r20, r20
 740:	aa 1f       	adc	r26, r26
 742:	22 1f       	adc	r18, r18
 744:	76 95       	lsr	r23
 746:	99 f7       	brne	.-26     	; 0x72e <__mulsf3_pse+0x34>
 748:	87 95       	ror	r24
 74a:	20 f4       	brcc	.+8      	; 0x754 <__mulsf3_pse+0x5a>
 74c:	b4 0f       	add	r27, r20
 74e:	0a 1e       	adc	r0, r26
 750:	12 1e       	adc	r1, r18
 752:	63 1f       	adc	r22, r19
 754:	44 0f       	add	r20, r20
 756:	aa 1f       	adc	r26, r26
 758:	22 1f       	adc	r18, r18
 75a:	33 1f       	adc	r19, r19
 75c:	86 95       	lsr	r24
 75e:	a9 f7       	brne	.-22     	; 0x74a <__mulsf3_pse+0x50>
 760:	86 2f       	mov	r24, r22
 762:	71 2d       	mov	r23, r1
 764:	60 2d       	mov	r22, r0
 766:	11 24       	eor	r1, r1
 768:	9f 57       	subi	r25, 0x7F	; 127
 76a:	50 40       	sbci	r21, 0x00	; 0
 76c:	8a f0       	brmi	.+34     	; 0x790 <__mulsf3_pse+0x96>
 76e:	e1 f0       	breq	.+56     	; 0x7a8 <__mulsf3_pse+0xae>
 770:	88 23       	and	r24, r24
 772:	4a f0       	brmi	.+18     	; 0x786 <__mulsf3_pse+0x8c>
 774:	ee 0f       	add	r30, r30
 776:	ff 1f       	adc	r31, r31
 778:	bb 1f       	adc	r27, r27
 77a:	66 1f       	adc	r22, r22
 77c:	77 1f       	adc	r23, r23
 77e:	88 1f       	adc	r24, r24
 780:	91 50       	subi	r25, 0x01	; 1
 782:	50 40       	sbci	r21, 0x00	; 0
 784:	a9 f7       	brne	.-22     	; 0x770 <__mulsf3_pse+0x76>
 786:	9e 3f       	cpi	r25, 0xFE	; 254
 788:	51 05       	cpc	r21, r1
 78a:	70 f0       	brcs	.+28     	; 0x7a8 <__mulsf3_pse+0xae>
 78c:	58 cf       	rjmp	.-336    	; 0x63e <__fp_inf>
 78e:	a2 cf       	rjmp	.-188    	; 0x6d4 <__fp_szero>
 790:	5f 3f       	cpi	r21, 0xFF	; 255
 792:	ec f3       	brlt	.-6      	; 0x78e <__mulsf3_pse+0x94>
 794:	98 3e       	cpi	r25, 0xE8	; 232
 796:	dc f3       	brlt	.-10     	; 0x78e <__mulsf3_pse+0x94>
 798:	86 95       	lsr	r24
 79a:	77 95       	ror	r23
 79c:	67 95       	ror	r22
 79e:	b7 95       	ror	r27
 7a0:	f7 95       	ror	r31
 7a2:	e7 95       	ror	r30
 7a4:	9f 5f       	subi	r25, 0xFF	; 255
 7a6:	c1 f7       	brne	.-16     	; 0x798 <__mulsf3_pse+0x9e>
 7a8:	fe 2b       	or	r31, r30
 7aa:	88 0f       	add	r24, r24
 7ac:	91 1d       	adc	r25, r1
 7ae:	96 95       	lsr	r25
 7b0:	87 95       	ror	r24
 7b2:	97 f9       	bld	r25, 7
 7b4:	08 95       	ret

000007b6 <__udivmodhi4>:
 7b6:	aa 1b       	sub	r26, r26
 7b8:	bb 1b       	sub	r27, r27
 7ba:	51 e1       	ldi	r21, 0x11	; 17
 7bc:	07 c0       	rjmp	.+14     	; 0x7cc <__udivmodhi4_ep>

000007be <__udivmodhi4_loop>:
 7be:	aa 1f       	adc	r26, r26
 7c0:	bb 1f       	adc	r27, r27
 7c2:	a6 17       	cp	r26, r22
 7c4:	b7 07       	cpc	r27, r23
 7c6:	10 f0       	brcs	.+4      	; 0x7cc <__udivmodhi4_ep>
 7c8:	a6 1b       	sub	r26, r22
 7ca:	b7 0b       	sbc	r27, r23

000007cc <__udivmodhi4_ep>:
 7cc:	88 1f       	adc	r24, r24
 7ce:	99 1f       	adc	r25, r25
 7d0:	5a 95       	dec	r21
 7d2:	a9 f7       	brne	.-22     	; 0x7be <__udivmodhi4_loop>
 7d4:	80 95       	com	r24
 7d6:	90 95       	com	r25
 7d8:	bc 01       	movw	r22, r24
 7da:	cd 01       	movw	r24, r26
 7dc:	08 95       	ret

000007de <_exit>:
 7de:	f8 94       	cli

000007e0 <__stop_program>:
 7e0:	ff cf       	rjmp	.-2      	; 0x7e0 <__stop_program>
